; Function Attrs: mustprogress uwtable
define void @_ZN12colvarmodule10atom_group25setup_rotation_derivativeEv(ptr noundef nonnull align 8 dereferenceable(1440) %0) local_unnamed_addr #2 align 2 personality ptr @__gxx_personality_v0 {
  %2 = getelementptr inbounds i8, ptr %0, i64 1200
  %3 = load ptr, ptr %2, align 8
  %.not = icmp eq ptr %3, null
  br i1 %.not, label %5, label %4

4:                                                ; preds = %1
  tail call void @_ZdlPv(ptr noundef nonnull %3) #26
  br label %5

5:                                                ; preds = %4, %1
  %6 = tail call noalias noundef nonnull dereferenceable(664) ptr @_Znwm(i64 noundef 664) #27
  %7 = getelementptr inbounds i8, ptr %0, i64 1264
  %8 = load ptr, ptr %7, align 8
  %.not2 = icmp eq ptr %8, null
  %. = select i1 %.not2, ptr %0, ptr %8
  %9 = getelementptr inbounds i8, ptr %., i64 504
  %10 = getelementptr inbounds i8, ptr %0, i64 632
  %11 = getelementptr inbounds i8, ptr %0, i64 1216
  store ptr %10, ptr %6, align 8
  %12 = getelementptr inbounds i8, ptr %6, i64 8
  store ptr %9, ptr %12, align 8
  %13 = getelementptr inbounds i8, ptr %6, i64 16
  store ptr %11, ptr %13, align 8
  store ptr %6, ptr %2, align 8
  ret void
}